(dp0
S'MC_NUM_TightIDandIPCut_DEN_genTracks_PAR_phi'
p1
(dp2
S'phi_ratio'
p3
(dp4
S'phi:[-2.0944,-1.5708]'
p5
(dp6
S'value'
p7
F0.9833385944366455
sS'error'
p8
F0.0008416395741531648
ssS'phi:[1.0472,1.5708]'
p9
(dp10
g7
F0.9867042303085327
sg8
F0.0009373874341207671
ssS'phi:[1.5708,2.0944]'
p11
(dp12
g7
F0.9747966527938843
sg8
F0.0009527627728155568
ssS'phi:[-3.1416,-2.618]'
p13
(dp14
g7
F0.9898357391357422
sg8
F0.0007960040679870368
ssS'phi:[2.618,3.1416]'
p15
(dp16
g7
F0.9867352843284607
sg8
F0.0008181664786323343
ssS'phi:[-2.618,-2.0944]'
p17
(dp18
g7
F0.9861109852790833
sg8
F0.0008200044849502639
ssS'phi:[-1.0472,-0.5236]'
p19
(dp20
g7
F0.9853323101997375
sg8
F0.0008216888462868044
ssS'phi:[-0.5236,0.0]'
p21
(dp22
g7
F0.9854975342750549
sg8
F0.0008325149227099686
ssS'phi:[2.0944,2.618]'
p23
(dp24
g7
F0.9857913851737976
sg8
F0.0008277554179587674
ssS'phi:[0.5236,1.0472]'
p25
(dp26
g7
F0.974719762802124
sg8
F0.000932170826080928
ssS'phi:[-1.5708,-1.0472]'
p27
(dp28
g7
F0.979871392250061
sg8
F0.000877089398573376
ssS'phi:[0.0,0.5236]'
p29
(dp30
g7
F0.983509361743927
sg8
F0.0008381337794821116
ssssS'MC_NUM_LooseID_DEN_genTracks_PAR_pt_vtx'
p31
(dp32
S'tag_nVertices_ratio'
p33
(dp34
S'tag:[22.5,24.5]'
p35
(dp36
g7
F0.9971229434013367
sg8
F0.0023735918475694825
ssS'tag:[8.5,10.5]'
p37
(dp38
g7
F0.9977198839187622
sg8
F0.000383353698581832
ssS'tag:[24.5,26.5]'
p39
(dp40
g7
F1.0008338689804077
sg8
F0.0015230403893450814
ssS'tag:[26.5,28.5]'
p41
(dp42
g7
F1.0013865232467651
sg8
F0.005479423804617896
ssS'tag:[16.5,18.5]'
p43
(dp44
g7
F0.9983099699020386
sg8
F0.0006621194900220208
ssS'tag:[6.5,8.5]'
p45
(dp46
g7
F0.9986900687217712
sg8
F0.0004628977244301634
ssS'tag:[18.5,20.5]'
p47
(dp48
g7
F0.9959481358528137
sg8
F0.0009578617986164298
ssS'tag:[10.5,12.5]'
p49
(dp50
g7
F0.9974750876426697
sg8
F0.0003729288909454661
ssS'tag:[14.5,16.5]'
p51
(dp52
g7
F0.9979369044303894
sg8
F0.0004895717773247172
ssS'tag:[2.5,4.5]'
p53
(dp54
g7
F0.9988229274749756
sg8
F0.0013571337303996268
ssS'tag:[28.5,30.5]'
p55
(dp56
g7
F0.9817640781402588
sg8
F0.014512442001819639
ssS'tag:[20.5,22.5]'
p57
(dp58
g7
F1.0010414123535156
sg8
F0.00019803873519283878
ssS'tag:[0.5,2.5]'
p59
(dp60
g7
F0.9993765950202942
sg8
F0.004277900378828217
ssS'tag:[12.5,14.5]'
p61
(dp62
g7
F0.9971200823783875
sg8
F0.000403221246273993
ssS'tag:[4.5,6.5]'
p63
(dp64
g7
F0.9975928664207458
sg8
F0.0007013555105707239
ssssS'MC_NUM_LooseID_DEN_genTracks_PAR_eta'
p65
(dp66
S'eta_ratio'
p67
(dp68
S'eta:[-0.2,0.2]'
p69
(dp70
g7
F0.9985136389732361
sg8
F0.0005156019409786434
ssS'eta:[-2.4,-2.1]'
p71
(dp72
g7
F0.994611918926239
sg8
F0.0010700636503745648
ssS'eta:[0.3,0.9]'
p73
(dp74
g7
F0.9984459280967712
sg8
F0.0004246829606775608
ssS'eta:[-0.9,-0.3]'
p75
(dp76
g7
F0.9985109567642212
sg8
F0.0004254732153360994
ssS'eta:[0.2,0.3]'
p77
(dp78
g7
F0.9892811179161072
sg8
F0.0012392609505541743
ssS'eta:[0.9,1.2]'
p79
(dp80
g7
F0.9956979751586914
sg8
F0.0006826117598680111
ssS'eta:[-1.2,-0.9]'
p81
(dp82
g7
F0.9963070154190063
sg8
F0.0006240027148771381
ssS'eta:[2.1,2.4]'
p83
(dp84
g7
F0.9952567219734192
sg8
F0.0010651677399732891
ssS'eta:[-1.6,-1.2]'
p85
(dp86
g7
F0.999431848526001
sg8
F0.0006013165380170598
ssS'eta:[1.2,1.6]'
p87
(dp88
g7
F0.9986513257026672
sg8
F0.0009465544919474973
ssS'eta:[-2.1,-1.6]'
p89
(dp90
g7
F0.9982444643974304
sg8
F0.0004977160402437076
ssS'eta:[-0.3,-0.2]'
p91
(dp92
g7
F0.9950471520423889
sg8
F0.0011610226508484498
ssS'eta:[1.6,2.1]'
p93
(dp94
g7
F0.9975646138191223
sg8
F0.0006274623279582653
ssssS'MC_NUM_LooseID_DEN_genTracks_PAR_pt_alleta_bin1'
p95
(dp96
S'pt_ratio'
p97
(dp98
S'pt:[25.0,30.0]'
p99
(dp100
g7
F0.9972924590110779
sg8
F0.0008097074234222163
ssS'pt:[30.0,40.0]'
p101
(dp102
g7
F0.9977042078971863
sg8
F0.0002651809517724258
ssS'pt:[80.0,120.0]'
p103
(dp104
g7
F0.9811505675315857
sg8
F0.005402101538129593
ssS'pt:[120.0,200.0]'
p105
(dp106
g7
F1.0
sg8
F0.008489694228083808
ssS'pt:[60.0,80.0]'
p107
(dp108
g7
F0.9977852702140808
sg8
F0.0017167893655289687
ssS'pt:[20.0,25.0]'
p109
(dp110
g7
F1.0006349086761475
sg8
F0.0016246427897842455
ssS'pt:[40.0,50.0]'
p111
(dp112
g7
F0.9976500868797302
sg8
F0.00017827770413575097
ssS'pt:[50.0,60.0]'
p113
(dp114
g7
F0.9934850931167603
sg8
F0.0006005338480799778
ssssS'MC_NUM_LooseID_DEN_genTracks_PAR_phi'
p115
(dp116
S'phi_ratio'
p117
(dp118
S'phi:[-2.0944,-1.5708]'
p119
(dp120
g7
F0.998588502407074
sg8
F0.0006127122971112117
ssS'phi:[1.0472,1.5708]'
p121
(dp122
g7
F0.9969203472137451
sg8
F0.0006612657505245688
ssS'phi:[1.5708,2.0944]'
p123
(dp124
g7
F0.9976398944854736
sg8
F0.000659051065018793
ssS'phi:[-3.1416,-2.618]'
p125
(dp126
g7
F0.9988076686859131
sg8
F0.0006001263326037017
ssS'phi:[2.618,3.1416]'
p127
(dp128
g7
F0.9984230399131775
sg8
F0.0006170757916442143
ssS'phi:[-2.618,-2.0944]'
p129
(dp130
g7
F0.9971514940261841
sg8
F0.0006060402511259395
ssS'phi:[-1.0472,-0.5236]'
p131
(dp132
g7
F0.9972938895225525
sg8
F0.0006133982736036646
ssS'phi:[-0.5236,0.0]'
p133
(dp134
g7
F0.9988315105438232
sg8
F0.000623656314404289
ssS'phi:[2.0944,2.618]'
p135
(dp136
g7
F0.99856036901474
sg8
F0.0006215698128635581
ssS'phi:[0.5236,1.0472]'
p137
(dp138
g7
F0.9969404935836792
sg8
F0.0006580387586178289
ssS'phi:[-1.5708,-1.0472]'
p139
(dp140
g7
F0.9966221451759338
sg8
F0.0006400922130564592
ssS'phi:[0.0,0.5236]'
p141
(dp142
g7
F0.99826580286026
sg8
F0.0006417651239811677
ssssS'MC_NUM_TightIDandIPCut_DEN_genTracks_PAR_eta'
p143
(dp144
S'eta_ratio'
p145
(dp146
S'eta:[-0.2,0.2]'
p147
(dp148
g7
F0.9817474484443665
sg8
F0.0007442286828596565
ssS'eta:[-2.4,-2.1]'
p149
(dp150
g7
F0.9776590466499329
sg8
F0.0014435194149471846
ssS'eta:[0.3,0.9]'
p151
(dp152
g7
F0.9854801297187805
sg8
F0.000586364613553342
ssS'eta:[-0.9,-0.3]'
p153
(dp154
g7
F0.9821679592132568
sg8
F0.0005952194274070656
ssS'eta:[0.2,0.3]'
p155
(dp156
g7
F0.9601796865463257
sg8
F0.002472887918177617
ssS'eta:[0.9,1.2]'
p157
(dp158
g7
F0.9744365215301514
sg8
F0.0009495816466904918
ssS'eta:[-1.2,-0.9]'
p159
(dp160
g7
F0.9714938998222351
sg8
F0.0009169988354899071
ssS'eta:[2.1,2.4]'
p161
(dp162
g7
F0.9787265062332153
sg8
F0.0014166885849537412
ssS'eta:[-1.6,-1.2]'
p163
(dp164
g7
F0.9947785139083862
sg8
F0.0006987184945562372
ssS'eta:[1.2,1.6]'
p165
(dp166
g7
F0.9934794306755066
sg8
F0.0010192698321880597
ssS'eta:[-2.1,-1.6]'
p167
(dp168
g7
F0.9886376261711121
sg8
F0.0006872986528237722
ssS'eta:[-0.3,-0.2]'
p169
(dp170
g7
F0.9709174036979675
sg8
F0.0023914134855549246
ssS'eta:[1.6,2.1]'
p171
(dp172
g7
F0.9907392263412476
sg8
F0.0007720413816022665
ssssS'MC_NUM_TightIDandIPCut_DEN_genTracks_PAR_vtx'
p173
(dp174
S'tag_nVertices_ratio'
p175
(dp176
S'tag:[22.5,24.5]'
p177
(dp178
g7
F0.9762360453605652
sg8
F0.0027808956172072448
ssS'tag:[8.5,10.5]'
p179
(dp180
g7
F0.9848600029945374
sg8
F0.0005858038504050733
ssS'tag:[24.5,26.5]'
p181
(dp182
g7
F0.9860056042671204
sg8
F0.004640187837804085
ssS'tag:[26.5,28.5]'
p183
(dp184
g7
F0.978793203830719
sg8
F0.008571346737946687
ssS'tag:[16.5,18.5]'
p185
(dp186
g7
F0.9820494055747986
sg8
F0.0008500064158562096
ssS'tag:[6.5,8.5]'
p187
(dp188
g7
F0.9862858653068542
sg8
F0.0007464308552402245
ssS'tag:[18.5,20.5]'
p189
(dp190
g7
F0.9792103171348572
sg8
F0.0011886558948310693
ssS'tag:[10.5,12.5]'
p191
(dp192
g7
F0.9840818643569946
sg8
F0.0005431140408172317
ssS'tag:[14.5,16.5]'
p193
(dp194
g7
F0.982853889465332
sg8
F0.0006550586665124592
ssS'tag:[2.5,4.5]'
p195
(dp196
g7
F0.9834495782852173
sg8
F0.002435103129629477
ssS'tag:[28.5,30.5]'
p197
(dp198
g7
F0.9558215141296387
sg8
F0.015985462123808296
ssS'tag:[20.5,22.5]'
p199
(dp200
g7
F0.9834437370300293
sg8
F0.0017808594024006639
ssS'tag:[0.5,2.5]'
p201
(dp202
g7
F0.98470538854599
sg8
F0.007660667185770743
ssS'tag:[12.5,14.5]'
p203
(dp204
g7
F0.9821930527687073
sg8
F0.0005605525292393353
ssS'tag:[4.5,6.5]'
p205
(dp206
g7
F0.9862805008888245
sg8
F0.0011690632912205149
ssssS'MC_NUM_TightIDandIPCut_DEN_genTracks_PAR_pt_spliteta_bin1'
p207
(dp208
S'pt_abseta_ratio'
p209
(dp210
S'pt:[25.0,30.0]'
p211
(dp212
S'abseta:[0.0,0.9]'
p213
(dp214
g7
F0.9781679511070251
sg8
F0.0016237950218957185
ssS'abseta:[1.2,2.1]'
p215
(dp216
g7
F0.9920070171356201
sg8
F0.001542917393444747
ssS'abseta:[2.1,2.4]'
p217
(dp218
g7
F0.9824178814888
sg8
F0.003094247370529834
ssS'abseta:[0.9,1.2]'
p219
(dp220
g7
F0.9637151956558228
sg8
F0.0028397495157025106
sssS'pt:[30.0,40.0]'
p221
(dp222
S'abseta:[0.0,0.9]'
p223
(dp224
g7
F0.9804612994194031
sg8
F0.0006265443052542876
ssS'abseta:[1.2,2.1]'
p225
(dp226
g7
F0.9914596080780029
sg8
F0.0006362466542392489
ssS'abseta:[2.1,2.4]'
p227
(dp228
g7
F0.9785181283950806
sg8
F0.0015266744551197795
ssS'abseta:[0.9,1.2]'
p229
(dp230
g7
F0.9730046391487122
sg8
F0.0011163922820852236
sssS'pt:[60.0,120.0]'
p231
(dp232
S'abseta:[0.0,0.9]'
p233
(dp234
g7
F0.9791422486305237
sg8
F0.002756246055641283
ssS'abseta:[1.2,2.1]'
p235
(dp236
g7
F0.9964934587478638
sg8
F0.003703087577304296
ssS'abseta:[2.1,2.4]'
p237
(dp238
g7
F0.9793220162391663
sg8
F0.01001499263418715
ssS'abseta:[0.9,1.2]'
p239
(dp240
g7
F0.9779800772666931
sg8
F0.00482052301974902
sssS'pt:[20.0,25.0]'
p241
(dp242
S'abseta:[0.0,0.9]'
p243
(dp244
g7
F0.9662030935287476
sg8
F0.0032005074150243955
ssS'abseta:[1.2,2.1]'
p245
(dp246
g7
F0.9917805790901184
sg8
F0.0026859850211248494
ssS'abseta:[2.1,2.4]'
p247
(dp248
g7
F0.9779636859893799
sg8
F0.0048591219654160744
ssS'abseta:[0.9,1.2]'
p249
(dp250
g7
F0.9745419025421143
sg8
F0.004851916722942203
sssS'pt:[40.0,50.0]'
p251
(dp252
S'abseta:[0.0,0.9]'
p253
(dp254
g7
F0.9793506860733032
sg8
F2.6356071666419784e-05
ssS'abseta:[1.2,2.1]'
p255
(dp256
g7
F0.9927933812141418
sg8
F1.4360660065754065e-05
ssS'abseta:[2.1,2.4]'
p257
(dp258
g7
F0.9781895875930786
sg8
F0.0014256465287519418
ssS'abseta:[0.9,1.2]'
p259
(dp260
g7
F0.972825825214386
sg8
F0.00038240713713451465
sssS'pt:[50.0,60.0]'
p261
(dp262
S'abseta:[0.0,0.9]'
p263
(dp264
g7
F0.9789407849311829
sg8
F0.0024893658679317546
ssS'abseta:[1.2,2.1]'
p265
(dp266
g7
F0.9944654107093811
sg8
F0.0015724435832399008
ssS'abseta:[2.1,2.4]'
p267
(dp268
g7
F0.9785971641540527
sg8
F0.004834635332826261
ssS'abseta:[0.9,1.2]'
p269
(dp270
g7
F0.9720000624656677
sg8
F0.002283481006407669
ssssS'abseta_pt_ratio'
p271
(dp272
S'abseta:[0.0,0.9]'
p273
(dp274
S'pt:[25.0,30.0]'
p275
(dp276
g7
F0.9781679511070251
sg8
F0.0016237950218957185
ssS'pt:[30.0,40.0]'
p277
(dp278
g7
F0.9804612994194031
sg8
F0.0006265443052542876
ssS'pt:[60.0,120.0]'
p279
(dp280
g7
F0.9791422486305237
sg8
F0.002756246055641283
ssS'pt:[20.0,25.0]'
p281
(dp282
g7
F0.9662030935287476
sg8
F0.0032005074150243955
ssS'pt:[40.0,50.0]'
p283
(dp284
g7
F0.9793506860733032
sg8
F2.6356071666419784e-05
ssS'pt:[50.0,60.0]'
p285
(dp286
g7
F0.9789407849311829
sg8
F0.0024893658679317546
sssS'abseta:[1.2,2.1]'
p287
(dp288
S'pt:[25.0,30.0]'
p289
(dp290
g7
F0.9920070171356201
sg8
F0.001542917393444747
ssS'pt:[30.0,40.0]'
p291
(dp292
g7
F0.9914596080780029
sg8
F0.0006362466542392489
ssS'pt:[60.0,120.0]'
p293
(dp294
g7
F0.9964934587478638
sg8
F0.003703087577304296
ssS'pt:[20.0,25.0]'
p295
(dp296
g7
F0.9917805790901184
sg8
F0.0026859850211248494
ssS'pt:[40.0,50.0]'
p297
(dp298
g7
F0.9927933812141418
sg8
F1.4360660065754065e-05
ssS'pt:[50.0,60.0]'
p299
(dp300
g7
F0.9944654107093811
sg8
F0.0015724435832399008
sssS'abseta:[2.1,2.4]'
p301
(dp302
S'pt:[25.0,30.0]'
p303
(dp304
g7
F0.9824178814888
sg8
F0.003094247370529834
ssS'pt:[30.0,40.0]'
p305
(dp306
g7
F0.9785181283950806
sg8
F0.0015266744551197795
ssS'pt:[60.0,120.0]'
p307
(dp308
g7
F0.9793220162391663
sg8
F0.01001499263418715
ssS'pt:[20.0,25.0]'
p309
(dp310
g7
F0.9779636859893799
sg8
F0.0048591219654160744
ssS'pt:[40.0,50.0]'
p311
(dp312
g7
F0.9781895875930786
sg8
F0.0014256465287519418
ssS'pt:[50.0,60.0]'
p313
(dp314
g7
F0.9785971641540527
sg8
F0.004834635332826261
sssS'abseta:[0.9,1.2]'
p315
(dp316
S'pt:[25.0,30.0]'
p317
(dp318
g7
F0.9637151956558228
sg8
F0.0028397495157025106
ssS'pt:[30.0,40.0]'
p319
(dp320
g7
F0.9730046391487122
sg8
F0.0011163922820852236
ssS'pt:[60.0,120.0]'
p321
(dp322
g7
F0.9779800772666931
sg8
F0.00482052301974902
ssS'pt:[20.0,25.0]'
p323
(dp324
g7
F0.9745419025421143
sg8
F0.004851916722942203
ssS'pt:[40.0,50.0]'
p325
(dp326
g7
F0.972825825214386
sg8
F0.00038240713713451465
ssS'pt:[50.0,60.0]'
p327
(dp328
g7
F0.9720000624656677
sg8
F0.002283481006407669
sssssS'MC_NUM_LooseID_DEN_genTracks_PAR_pt_spliteta_bin1'
p329
(dp330
S'pt_abseta_ratio'
p331
(dp332
S'pt:[25.0,30.0]'
p333
(dp334
S'abseta:[0.0,0.9]'
p335
(dp336
g7
F0.9924009442329407
sg8
F0.0012559565599370062
ssS'abseta:[1.2,2.1]'
p337
(dp338
g7
F0.9998655915260315
sg8
F0.0013806262096432472
ssS'abseta:[2.1,2.4]'
p339
(dp340
g7
F0.9978384375572205
sg8
F0.0023981254220395215
ssS'abseta:[0.9,1.2]'
p341
(dp342
g7
F0.9885867834091187
sg8
F0.002280327806443726
sssS'pt:[30.0,40.0]'
p343
(dp344
S'abseta:[0.0,0.9]'
p345
(dp346
g7
F0.9968470931053162
sg8
F0.00036770973578545695
ssS'abseta:[1.2,2.1]'
p347
(dp348
g7
F0.9986271858215332
sg8
F0.0005096061803274751
ssS'abseta:[2.1,2.4]'
p349
(dp350
g7
F0.99484783411026
sg8
F0.0010154763224170626
ssS'abseta:[0.9,1.2]'
p351
(dp352
g7
F0.996913492679596
sg8
F0.0007104697809187536
sssS'pt:[60.0,120.0]'
p353
(dp354
S'abseta:[0.0,0.9]'
p355
(dp356
g7
F0.9942322373390198
sg8
F0.002425919417371966
ssS'abseta:[1.2,2.1]'
p357
(dp358
g7
F0.9988075494766235
sg8
F0.0035487617725356766
ssS'abseta:[2.1,2.4]'
p359
(dp360
g7
F0.9884498715400696
sg8
F0.00931972734114471
ssS'abseta:[0.9,1.2]'
p361
(dp362
g7
F0.9977731704711914
sg8
F0.004339540716048417
sssS'pt:[20.0,25.0]'
p363
(dp364
S'abseta:[0.0,0.9]'
p365
(dp366
g7
F0.981805145740509
sg8
F0.0028383667462474733
ssS'abseta:[1.2,2.1]'
p367
(dp368
g7
F1.0001838207244873
sg8
F0.6186779237257928
ssS'abseta:[2.1,2.4]'
p369
(dp370
g7
F0.996174156665802
sg8
F0.004303334518824792
ssS'abseta:[0.9,1.2]'
p371
(dp372
g7
F0.9966380000114441
sg8
F0.004360860436115601
sssS'pt:[40.0,50.0]'
p373
(dp374
S'abseta:[0.0,0.9]'
p375
(dp376
g7
F0.9973633885383606
sg8
F0.0002300559561915514
ssS'abseta:[1.2,2.1]'
p377
(dp378
g7
F0.9988232851028442
sg8
F6.332841189023675e-05
ssS'abseta:[2.1,2.4]'
p379
(dp380
g7
F0.9967027306556702
sg8
F0.0008029676681637315
ssS'abseta:[0.9,1.2]'
p381
(dp382
g7
F0.9958537817001343
sg8
F0.0004349458002620681
sssS'pt:[50.0,60.0]'
p383
(dp384
S'abseta:[0.0,0.9]'
p385
(dp386
g7
F0.9943518042564392
sg8
F0.0008976905319121415
ssS'abseta:[1.2,2.1]'
p387
(dp388
g7
F0.9991852045059204
sg8
F0.0013549051435054534
ssS'abseta:[2.1,2.4]'
p389
(dp390
g7
F0.9941050410270691
sg8
F0.003797934794262389
ssS'abseta:[0.9,1.2]'
p391
(dp392
g7
F0.9949037432670593
sg8
F0.001570724385218418
ssssS'abseta_pt_ratio'
p393
(dp394
S'abseta:[0.0,0.9]'
p395
(dp396
S'pt:[25.0,30.0]'
p397
(dp398
g7
F0.9924009442329407
sg8
F0.0012559565599370062
ssS'pt:[30.0,40.0]'
p399
(dp400
g7
F0.9968470931053162
sg8
F0.00036770973578545695
ssS'pt:[60.0,120.0]'
p401
(dp402
g7
F0.9942322373390198
sg8
F0.002425919417371966
ssS'pt:[20.0,25.0]'
p403
(dp404
g7
F0.981805145740509
sg8
F0.0028383667462474733
ssS'pt:[40.0,50.0]'
p405
(dp406
g7
F0.9973633885383606
sg8
F0.0002300559561915514
ssS'pt:[50.0,60.0]'
p407
(dp408
g7
F0.9943518042564392
sg8
F0.0008976905319121415
sssS'abseta:[1.2,2.1]'
p409
(dp410
S'pt:[25.0,30.0]'
p411
(dp412
g7
F0.9998655915260315
sg8
F0.0013806262096432472
ssS'pt:[30.0,40.0]'
p413
(dp414
g7
F0.9986271858215332
sg8
F0.0005096061803274751
ssS'pt:[60.0,120.0]'
p415
(dp416
g7
F0.9988075494766235
sg8
F0.0035487617725356766
ssS'pt:[20.0,25.0]'
p417
(dp418
g7
F1.0001838207244873
sg8
F0.6186779237257928
ssS'pt:[40.0,50.0]'
p419
(dp420
g7
F0.9988232851028442
sg8
F6.332841189023675e-05
ssS'pt:[50.0,60.0]'
p421
(dp422
g7
F0.9991852045059204
sg8
F0.0013549051435054534
sssS'abseta:[2.1,2.4]'
p423
(dp424
S'pt:[25.0,30.0]'
p425
(dp426
g7
F0.9978384375572205
sg8
F0.0023981254220395215
ssS'pt:[30.0,40.0]'
p427
(dp428
g7
F0.99484783411026
sg8
F0.0010154763224170626
ssS'pt:[60.0,120.0]'
p429
(dp430
g7
F0.9884498715400696
sg8
F0.00931972734114471
ssS'pt:[20.0,25.0]'
p431
(dp432
g7
F0.996174156665802
sg8
F0.004303334518824792
ssS'pt:[40.0,50.0]'
p433
(dp434
g7
F0.9967027306556702
sg8
F0.0008029676681637315
ssS'pt:[50.0,60.0]'
p435
(dp436
g7
F0.9941050410270691
sg8
F0.003797934794262389
sssS'abseta:[0.9,1.2]'
p437
(dp438
S'pt:[25.0,30.0]'
p439
(dp440
g7
F0.9885867834091187
sg8
F0.002280327806443726
ssS'pt:[30.0,40.0]'
p441
(dp442
g7
F0.996913492679596
sg8
F0.0007104697809187536
ssS'pt:[60.0,120.0]'
p443
(dp444
g7
F0.9977731704711914
sg8
F0.004339540716048417
ssS'pt:[20.0,25.0]'
p445
(dp446
g7
F0.9966380000114441
sg8
F0.004360860436115601
ssS'pt:[40.0,50.0]'
p447
(dp448
g7
F0.9958537817001343
sg8
F0.0004349458002620681
ssS'pt:[50.0,60.0]'
p449
(dp450
g7
F0.9949037432670593
sg8
F0.001570724385218418
sssssS'MC_NUM_TightIDandIPCut_DEN_genTracks_PAR_pt_alleta_bin1'
p451
(dp452
S'pt_ratio'
p453
(dp454
S'pt:[25.0,30.0]'
p455
(dp456
g7
F0.9845016002655029
sg8
F0.0009913555692471876
ssS'pt:[30.0,40.0]'
p457
(dp458
g7
F0.983257532119751
sg8
F0.0004025054007083794
ssS'pt:[80.0,120.0]'
p459
(dp460
g7
F0.9687639474868774
sg8
F0.005741595446849472
ssS'pt:[120.0,200.0]'
p461
(dp462
g7
F1.0260475873947144
sg8
F0.020704905926996926
ssS'pt:[60.0,80.0]'
p463
(dp464
g7
F0.985524594783783
sg8
F0.0019580269806260806
ssS'pt:[20.0,25.0]'
p465
(dp466
g7
F0.9876207709312439
sg8
F0.001779294954196365
ssS'pt:[40.0,50.0]'
p467
(dp468
g7
F0.9822998046875
sg8
F0.0001513438964334058
ssS'pt:[50.0,60.0]'
p469
(dp470
g7
F0.9779475927352905
sg8
F0.000825716692769835
ssss.