(dp0
S'MC_NUM_tkRelIso4_DEN_TightID_PAR_vtx'
p1
(dp2
S'tag_nVertices_ratio'
p3
(dp4
S'tag:[22.5,24.5]'
p5
(dp6
S'value'
p7
F0.9994300603866577
sS'error'
p8
F0.001080675604458232
ssS'tag:[8.5,10.5]'
p9
(dp10
g7
F1.0001944303512573
sg8
F0.0003729339572019435
ssS'tag:[24.5,26.5]'
p11
(dp12
g7
F1.000586748123169
sg8
F0.001621960988141052
ssS'tag:[26.5,28.5]'
p13
(dp14
g7
F1.0022393465042114
sg8
F0.0026473241693978945
ssS'tag:[16.5,18.5]'
p15
(dp16
g7
F0.9997232556343079
sg8
F0.0004040803257073763
ssS'tag:[6.5,8.5]'
p17
(dp18
g7
F1.000034213066101
sg8
F0.0005069223199903591
ssS'tag:[18.5,20.5]'
p19
(dp20
g7
F1.000515341758728
sg8
F0.0005533360722933047
ssS'tag:[10.5,12.5]'
p21
(dp22
g7
F1.0006059408187866
sg8
F0.00031438292715032075
ssS'tag:[14.5,16.5]'
p23
(dp24
g7
F1.0001742839813232
sg8
F0.0003424246978519284
ssS'tag:[2.5,4.5]'
p25
(dp26
g7
F0.9994140863418579
sg8
F0.0017088995756464821
ssS'tag:[28.5,30.5]'
p27
(dp28
g7
F1.0032413005828857
sg8
F0.004644677742642752
ssS'tag:[20.5,22.5]'
p29
(dp30
g7
F1.0008866786956787
sg8
F0.0007254948560984859
ssS'tag:[0.5,2.5]'
p31
(dp32
g7
F1.0029419660568237
sg8
F0.005457336821392176
ssS'tag:[12.5,14.5]'
p33
(dp34
g7
F1.000174641609192
sg8
F0.00031055497462744857
ssS'tag:[4.5,6.5]'
p35
(dp36
g7
F1.0006589889526367
sg8
F0.0007894777062882524
ssssS'MC_NUM_LooseRelIso_DEN_TightID_PAR_vtx'
p37
(dp38
S'tag_nVertices_ratio'
p39
(dp40
S'tag:[22.5,24.5]'
p41
(dp42
g7
F0.9988721609115601
sg8
F0.0009479445681347407
ssS'tag:[8.5,10.5]'
p43
(dp44
g7
F0.9998136758804321
sg8
F0.0003229138352701883
ssS'tag:[24.5,26.5]'
p45
(dp46
g7
F0.9969181418418884
sg8
F0.0014735736835627383
ssS'tag:[26.5,28.5]'
p47
(dp48
g7
F0.9981765151023865
sg8
F0.0023238915361904738
ssS'tag:[16.5,18.5]'
p49
(dp50
g7
F0.9991640448570251
sg8
F0.0003491163528330785
ssS'tag:[6.5,8.5]'
p51
(dp52
g7
F0.9990824460983276
sg8
F0.0004333204636264036
ssS'tag:[18.5,20.5]'
p53
(dp54
g7
F1.0043078660964966
sg8
F0.00045617782001260756
ssS'tag:[10.5,12.5]'
p55
(dp56
g7
F0.9993286728858948
sg8
F0.0002763949738640741
ssS'tag:[14.5,16.5]'
p57
(dp58
g7
F0.9996384382247925
sg8
F0.00029298172994642193
ssS'tag:[2.5,4.5]'
p59
(dp60
g7
F0.9982278943061829
sg8
F0.003015307376372994
ssS'tag:[28.5,30.5]'
p61
(dp62
g7
F1.0033427476882935
sg8
F0.003946061719326887
ssS'tag:[20.5,22.5]'
p63
(dp64
g7
F0.9993001818656921
sg8
F0.0006430774305198735
ssS'tag:[0.5,2.5]'
p65
(dp66
g7
F0.9949094653129578
sg8
F0.004826024192869395
ssS'tag:[12.5,14.5]'
p67
(dp68
g7
F0.9999035596847534
sg8
F0.0002585759501268061
ssS'tag:[4.5,6.5]'
p69
(dp70
g7
F1.0005608797073364
sg8
F0.0006755508773882825
ssssS'MC_NUM_LooseRelIso_DEN_TightID_PAR_phi'
p71
(dp72
S'phi_ratio'
p73
(dp74
S'phi:[-2.0944,-1.5708]'
p75
(dp76
g7
F0.9993710517883301
sg8
F0.0004109474136161801
ssS'phi:[1.0472,1.5708]'
p77
(dp78
g7
F0.9986041188240051
sg8
F0.0004091117051561282
ssS'phi:[1.5708,2.0944]'
p79
(dp80
g7
F0.9996045827865601
sg8
F0.00040520812654159404
ssS'phi:[-3.1416,-2.618]'
p81
(dp82
g7
F0.9997777938842773
sg8
F0.00029913893570761687
ssS'phi:[2.618,3.1416]'
p83
(dp84
g7
F1.000120759010315
sg8
F0.0003950556883662105
ssS'phi:[-2.618,-2.0944]'
p85
(dp86
g7
F0.9998289942741394
sg8
F0.0004061520721595886
ssS'phi:[-1.0472,-0.5236]'
p87
(dp88
g7
F1.0002206563949585
sg8
F0.0003994267510219493
ssS'phi:[-0.5236,0.0]'
p89
(dp90
g7
F0.9994180202484131
sg8
F0.00040193813635371165
ssS'phi:[2.0944,2.618]'
p91
(dp92
g7
F1.0000534057617188
sg8
F0.0003994648934545883
ssS'phi:[0.5236,1.0472]'
p93
(dp94
g7
F0.9989274740219116
sg8
F0.00040859135015912775
ssS'phi:[-1.5708,-1.0472]'
p95
(dp96
g7
F1.0001407861709595
sg8
F0.00041049479306574303
ssS'phi:[0.0,0.5236]'
p97
(dp98
g7
F0.9996934533119202
sg8
F0.0003971029741717857
ssssS'MC_NUM_tkRelIso4_DEN_TightID_PAR_eta'
p99
(dp100
S'eta_ratio'
p101
(dp102
S'eta:[-0.2,0.2]'
p103
(dp104
g7
F1.000779390335083
sg8
F0.0004187525757531233
ssS'eta:[-2.4,-2.1]'
p105
(dp106
g7
F1.0005656480789185
sg8
F0.0006094240488714943
ssS'eta:[0.3,0.9]'
p107
(dp108
g7
F1.0001757144927979
sg8
F0.0003534434374022124
ssS'eta:[-0.9,-0.3]'
p109
(dp110
g7
F1.0000247955322266
sg8
F0.00035408304691849236
ssS'eta:[0.2,0.3]'
p111
(dp112
g7
F0.9999695420265198
sg8
F0.0009209650876792696
ssS'eta:[0.9,1.2]'
p113
(dp114
g7
F1.0002717971801758
sg8
F0.0005248858052578694
ssS'eta:[-1.2,-0.9]'
p115
(dp116
g7
F1.0009218454360962
sg8
F0.0005164414468850323
ssS'eta:[2.1,2.4]'
p117
(dp118
g7
F1.0003020763397217
sg8
F0.0006144240249020526
ssS'eta:[-1.6,-1.2]'
p119
(dp120
g7
F1.0005961656570435
sg8
F0.0004618937540969253
ssS'eta:[1.2,1.6]'
p121
(dp122
g7
F1.000737190246582
sg8
F0.0004658722061714531
ssS'eta:[-2.1,-1.6]'
p123
(dp124
g7
F1.0003396272659302
sg8
F0.0004433247262126069
ssS'eta:[-0.3,-0.2]'
p125
(dp126
g7
F1.0003327131271362
sg8
F0.0008974263859801316
ssS'eta:[1.6,2.1]'
p127
(dp128
g7
F1.0006176233291626
sg8
F0.00044504999588939996
ssssS'MC_NUM_tkRelIso4_DEN_TightID_PAR_pt_spliteta_bin1'
p129
(dp130
S'pt_abseta_ratio'
p131
(dp132
S'pt:[25.0,30.0]'
p133
(dp134
S'abseta:[0.0,0.9]'
p135
(dp136
g7
F1.0014498233795166
sg8
F0.0011471147424073332
ssS'abseta:[1.2,2.1]'
p137
(dp138
g7
F1.0018055438995361
sg8
F0.0011130745692222118
ssS'abseta:[2.1,2.4]'
p139
(dp140
g7
F1.0036534070968628
sg8
F0.001721492028993753
ssS'abseta:[0.9,1.2]'
p141
(dp142
g7
F1.0019831657409668
sg8
F0.0021136783160396852
sssS'pt:[30.0,40.0]'
p143
(dp144
S'abseta:[0.0,0.9]'
p145
(dp146
g7
F0.9995673298835754
sg8
F0.00040255746783648586
ssS'abseta:[1.2,2.1]'
p147
(dp148
g7
F1.002029299736023
sg8
F0.0004909007820420743
ssS'abseta:[2.1,2.4]'
p149
(dp150
g7
F1.0014172792434692
sg8
F0.0007831768239928141
ssS'abseta:[0.9,1.2]'
p151
(dp152
g7
F1.001651406288147
sg8
F0.0007417894841372848
sssS'pt:[60.0,120.0]'
p153
(dp154
S'abseta:[0.0,0.9]'
p155
(dp156
g7
F0.9990483522415161
sg8
F0.0004914687609666968
ssS'abseta:[1.2,2.1]'
p157
(dp158
g7
F0.999504566192627
sg8
F0.0005544117992953529
ssS'abseta:[2.1,2.4]'
p159
(dp160
g7
F0.999914288520813
sg8
F0.0009925472533738036
ssS'abseta:[0.9,1.2]'
p161
(dp162
g7
F0.9993346929550171
sg8
F0.0011523761386225313
sssS'pt:[20.0,25.0]'
p163
(dp164
S'abseta:[0.0,0.9]'
p165
(dp166
g7
F0.9991584420204163
sg8
F0.002200828950550509
ssS'abseta:[1.2,2.1]'
p167
(dp168
g7
F0.9982807040214539
sg8
F0.0016295174544991603
ssS'abseta:[2.1,2.4]'
p169
(dp170
g7
F1.0011811256408691
sg8
F0.0026583741854690895
ssS'abseta:[0.9,1.2]'
p171
(dp172
g7
F1.0000418424606323
sg8
F0.0033181664697225616
sssS'pt:[40.0,50.0]'
p173
(dp174
S'abseta:[0.0,0.9]'
p175
(dp176
g7
F0.9995453953742981
sg8
F0.00021481543537905167
ssS'abseta:[1.2,2.1]'
p177
(dp178
g7
F1.000697374343872
sg8
F0.0002381079268519029
ssS'abseta:[2.1,2.4]'
p179
(dp180
g7
F0.9998640418052673
sg8
F0.0004296864510486091
ssS'abseta:[0.9,1.2]'
p181
(dp182
g7
F0.9998282194137573
sg8
F0.0004031267236383155
sssS'pt:[50.0,60.0]'
p183
(dp184
S'abseta:[0.0,0.9]'
p185
(dp186
g7
F0.999325156211853
sg8
F0.0004060114317234635
ssS'abseta:[1.2,2.1]'
p187
(dp188
g7
F0.9988234639167786
sg8
F0.0004121046425567231
ssS'abseta:[2.1,2.4]'
p189
(dp190
g7
F0.9985156059265137
sg8
F0.0007777225404705854
ssS'abseta:[0.9,1.2]'
p191
(dp192
g7
F0.9988889098167419
sg8
F0.0007223819320255359
ssssS'abseta_pt_ratio'
p193
(dp194
S'abseta:[0.0,0.9]'
p195
(dp196
S'pt:[25.0,30.0]'
p197
(dp198
g7
F1.0014498233795166
sg8
F0.0011471147424073332
ssS'pt:[30.0,40.0]'
p199
(dp200
g7
F0.9995673298835754
sg8
F0.00040255746783648586
ssS'pt:[60.0,120.0]'
p201
(dp202
g7
F0.9990483522415161
sg8
F0.0004914687609666968
ssS'pt:[20.0,25.0]'
p203
(dp204
g7
F0.9991584420204163
sg8
F0.002200828950550509
ssS'pt:[40.0,50.0]'
p205
(dp206
g7
F0.9995453953742981
sg8
F0.00021481543537905167
ssS'pt:[50.0,60.0]'
p207
(dp208
g7
F0.999325156211853
sg8
F0.0004060114317234635
sssS'abseta:[1.2,2.1]'
p209
(dp210
S'pt:[25.0,30.0]'
p211
(dp212
g7
F1.0018055438995361
sg8
F0.0011130745692222118
ssS'pt:[30.0,40.0]'
p213
(dp214
g7
F1.002029299736023
sg8
F0.0004909007820420743
ssS'pt:[60.0,120.0]'
p215
(dp216
g7
F0.999504566192627
sg8
F0.0005544117992953529
ssS'pt:[20.0,25.0]'
p217
(dp218
g7
F0.9982807040214539
sg8
F0.0016295174544991603
ssS'pt:[40.0,50.0]'
p219
(dp220
g7
F1.000697374343872
sg8
F0.0002381079268519029
ssS'pt:[50.0,60.0]'
p221
(dp222
g7
F0.9988234639167786
sg8
F0.0004121046425567231
sssS'abseta:[2.1,2.4]'
p223
(dp224
S'pt:[25.0,30.0]'
p225
(dp226
g7
F1.0036534070968628
sg8
F0.001721492028993753
ssS'pt:[30.0,40.0]'
p227
(dp228
g7
F1.0014172792434692
sg8
F0.0007831768239928141
ssS'pt:[60.0,120.0]'
p229
(dp230
g7
F0.999914288520813
sg8
F0.0009925472533738036
ssS'pt:[20.0,25.0]'
p231
(dp232
g7
F1.0011811256408691
sg8
F0.0026583741854690895
ssS'pt:[40.0,50.0]'
p233
(dp234
g7
F0.9998640418052673
sg8
F0.0004296864510486091
ssS'pt:[50.0,60.0]'
p235
(dp236
g7
F0.9985156059265137
sg8
F0.0007777225404705854
sssS'abseta:[0.9,1.2]'
p237
(dp238
S'pt:[25.0,30.0]'
p239
(dp240
g7
F1.0019831657409668
sg8
F0.0021136783160396852
ssS'pt:[30.0,40.0]'
p241
(dp242
g7
F1.001651406288147
sg8
F0.0007417894841372848
ssS'pt:[60.0,120.0]'
p243
(dp244
g7
F0.9993346929550171
sg8
F0.0011523761386225313
ssS'pt:[20.0,25.0]'
p245
(dp246
g7
F1.0000418424606323
sg8
F0.0033181664697225616
ssS'pt:[40.0,50.0]'
p247
(dp248
g7
F0.9998282194137573
sg8
F0.0004031267236383155
ssS'pt:[50.0,60.0]'
p249
(dp250
g7
F0.9988889098167419
sg8
F0.0007223819320255359
sssssS'MC_NUM_TightRelIso_DEN_TightID_PAR_vtx'
p251
(dp252
S'tag_nVertices_ratio'
p253
(dp254
S'tag:[22.5,24.5]'
p255
(dp256
g7
F0.993498682975769
sg8
F0.0017405848906912318
ssS'tag:[8.5,10.5]'
p257
(dp258
g7
F0.9958540201187134
sg8
F0.0005747138549008098
ssS'tag:[24.5,26.5]'
p259
(dp260
g7
F0.9934800267219543
sg8
F0.0026372431194474533
ssS'tag:[26.5,28.5]'
p261
(dp262
g7
F0.993575394153595
sg8
F0.004555478977876547
ssS'tag:[16.5,18.5]'
p263
(dp264
g7
F0.9956369996070862
sg8
F0.0006592156688530056
ssS'tag:[6.5,8.5]'
p265
(dp266
g7
F0.9957650303840637
sg8
F0.000780749893210498
ssS'tag:[18.5,20.5]'
p267
(dp268
g7
F0.996802568435669
sg8
F0.0008566710283960436
ssS'tag:[10.5,12.5]'
p269
(dp270
g7
F0.9958374500274658
sg8
F0.0005105466303412457
ssS'tag:[14.5,16.5]'
p271
(dp272
g7
F0.9966403245925903
sg8
F0.0005505989263221442
ssS'tag:[2.5,4.5]'
p273
(dp274
g7
F0.9986606240272522
sg8
F0.0026361028471969233
ssS'tag:[28.5,30.5]'
p275
(dp276
g7
F0.9930711984634399
sg8
F0.00805960016263166
ssS'tag:[20.5,22.5]'
p277
(dp278
g7
F0.9960025548934937
sg8
F0.001183035470456862
ssS'tag:[0.5,2.5]'
p279
(dp280
g7
F1.0016182661056519
sg8
F0.00815470729658065
ssS'tag:[12.5,14.5]'
p281
(dp282
g7
F0.9966698884963989
sg8
F0.0004983548881136203
ssS'tag:[4.5,6.5]'
p283
(dp284
g7
F0.9990131258964539
sg8
F0.001262283630014577
ssssS'MC_NUM_LooseRelIso_DEN_TightID_PAR_pt_spliteta_bin1'
p285
(dp286
S'pt_abseta_ratio'
p287
(dp288
S'pt:[25.0,30.0]'
p289
(dp290
S'abseta:[0.0,0.9]'
p291
(dp292
g7
F0.9960483312606812
sg8
F0.0011013725361208914
ssS'abseta:[1.2,2.1]'
p293
(dp294
g7
F0.9980435371398926
sg8
F0.0009170392462173973
ssS'abseta:[2.1,2.4]'
p295
(dp296
g7
F0.9970012903213501
sg8
F0.0014851833825823646
ssS'abseta:[0.9,1.2]'
p297
(dp298
g7
F0.9987932443618774
sg8
F0.0018792807286399304
sssS'pt:[30.0,40.0]'
p299
(dp300
S'abseta:[0.0,0.9]'
p301
(dp302
g7
F0.9983356595039368
sg8
F0.00039761380944198236
ssS'abseta:[1.2,2.1]'
p303
(dp304
g7
F1.000851035118103
sg8
F0.00037408604553106035
ssS'abseta:[2.1,2.4]'
p305
(dp306
g7
F0.9992257952690125
sg8
F0.0006268065495988267
ssS'abseta:[0.9,1.2]'
p307
(dp308
g7
F0.9990927577018738
sg8
F0.0006546873170845683
sssS'pt:[60.0,120.0]'
p309
(dp310
S'abseta:[0.0,0.9]'
p311
(dp312
g7
F0.9993758201599121
sg8
F0.0004490745079525569
ssS'abseta:[1.2,2.1]'
p313
(dp314
g7
F0.9994828701019287
sg8
F0.00046914675931412355
ssS'abseta:[2.1,2.4]'
p315
(dp316
g7
F0.9998050928115845
sg8
F0.0010787976962151917
ssS'abseta:[0.9,1.2]'
p317
(dp318
g7
F0.999596357345581
sg8
F0.0007585687234156655
sssS'pt:[20.0,25.0]'
p319
(dp320
S'abseta:[0.0,0.9]'
p321
(dp322
g7
F0.9920995235443115
sg8
F0.001947135527003683
ssS'abseta:[1.2,2.1]'
p323
(dp324
g7
F0.9956350326538086
sg8
F0.0013669126482683455
ssS'abseta:[2.1,2.4]'
p325
(dp326
g7
F0.9931002259254456
sg8
F0.0022771010552544444
ssS'abseta:[0.9,1.2]'
p327
(dp328
g7
F0.9915412664413452
sg8
F0.0028883476182960882
sssS'pt:[40.0,50.0]'
p329
(dp330
S'abseta:[0.0,0.9]'
p331
(dp332
g7
F0.9985870718955994
sg8
F0.0001883312165644714
ssS'abseta:[1.2,2.1]'
p333
(dp334
g7
F0.9986881017684937
sg8
F0.00017425583532537
ssS'abseta:[2.1,2.4]'
p335
(dp336
g7
F1.0008211135864258
sg8
F0.0003613938032952735
ssS'abseta:[0.9,1.2]'
p337
(dp338
g7
F0.9996330142021179
sg8
F0.000306690933561343
sssS'pt:[50.0,60.0]'
p339
(dp340
S'abseta:[0.0,0.9]'
p341
(dp342
g7
F0.9999338388442993
sg8
F0.0003545017608227576
ssS'abseta:[1.2,2.1]'
p343
(dp344
g7
F0.9999821782112122
sg8
F0.0003534924068730515
ssS'abseta:[2.1,2.4]'
p345
(dp346
g7
F0.9990992546081543
sg8
F0.0008221734133938276
ssS'abseta:[0.9,1.2]'
p347
(dp348
g7
F0.9991645812988281
sg8
F0.0006126899709106992
ssssS'abseta_pt_ratio'
p349
(dp350
S'abseta:[0.0,0.9]'
p351
(dp352
S'pt:[25.0,30.0]'
p353
(dp354
g7
F0.9960483312606812
sg8
F0.0011013725361208914
ssS'pt:[30.0,40.0]'
p355
(dp356
g7
F0.9983356595039368
sg8
F0.00039761380944198236
ssS'pt:[60.0,120.0]'
p357
(dp358
g7
F0.9993758201599121
sg8
F0.0004490745079525569
ssS'pt:[20.0,25.0]'
p359
(dp360
g7
F0.9920995235443115
sg8
F0.001947135527003683
ssS'pt:[40.0,50.0]'
p361
(dp362
g7
F0.9985870718955994
sg8
F0.0001883312165644714
ssS'pt:[50.0,60.0]'
p363
(dp364
g7
F0.9999338388442993
sg8
F0.0003545017608227576
sssS'abseta:[1.2,2.1]'
p365
(dp366
S'pt:[25.0,30.0]'
p367
(dp368
g7
F0.9980435371398926
sg8
F0.0009170392462173973
ssS'pt:[30.0,40.0]'
p369
(dp370
g7
F1.000851035118103
sg8
F0.00037408604553106035
ssS'pt:[60.0,120.0]'
p371
(dp372
g7
F0.9994828701019287
sg8
F0.00046914675931412355
ssS'pt:[20.0,25.0]'
p373
(dp374
g7
F0.9956350326538086
sg8
F0.0013669126482683455
ssS'pt:[40.0,50.0]'
p375
(dp376
g7
F0.9986881017684937
sg8
F0.00017425583532537
ssS'pt:[50.0,60.0]'
p377
(dp378
g7
F0.9999821782112122
sg8
F0.0003534924068730515
sssS'abseta:[2.1,2.4]'
p379
(dp380
S'pt:[25.0,30.0]'
p381
(dp382
g7
F0.9970012903213501
sg8
F0.0014851833825823646
ssS'pt:[30.0,40.0]'
p383
(dp384
g7
F0.9992257952690125
sg8
F0.0006268065495988267
ssS'pt:[60.0,120.0]'
p385
(dp386
g7
F0.9998050928115845
sg8
F0.0010787976962151917
ssS'pt:[20.0,25.0]'
p387
(dp388
g7
F0.9931002259254456
sg8
F0.0022771010552544444
ssS'pt:[40.0,50.0]'
p389
(dp390
g7
F1.0008211135864258
sg8
F0.0003613938032952735
ssS'pt:[50.0,60.0]'
p391
(dp392
g7
F0.9990992546081543
sg8
F0.0008221734133938276
sssS'abseta:[0.9,1.2]'
p393
(dp394
S'pt:[25.0,30.0]'
p395
(dp396
g7
F0.9987932443618774
sg8
F0.0018792807286399304
ssS'pt:[30.0,40.0]'
p397
(dp398
g7
F0.9990927577018738
sg8
F0.0006546873170845683
ssS'pt:[60.0,120.0]'
p399
(dp400
g7
F0.999596357345581
sg8
F0.0007585687234156655
ssS'pt:[20.0,25.0]'
p401
(dp402
g7
F0.9915412664413452
sg8
F0.0028883476182960882
ssS'pt:[40.0,50.0]'
p403
(dp404
g7
F0.9996330142021179
sg8
F0.000306690933561343
ssS'pt:[50.0,60.0]'
p405
(dp406
g7
F0.9991645812988281
sg8
F0.0006126899709106992
sssssS'MC_NUM_TightRelIso_DEN_TightID_PAR_eta'
p407
(dp408
S'eta_ratio'
p409
(dp410
S'eta:[-0.2,0.2]'
p411
(dp412
g7
F0.9949964880943298
sg8
F0.0007217868421717281
ssS'eta:[-2.4,-2.1]'
p413
(dp414
g7
F0.9932701587677002
sg8
F0.0009811704058877645
ssS'eta:[0.3,0.9]'
p415
(dp416
g7
F0.998424768447876
sg8
F0.0005764413675683777
ssS'eta:[-0.9,-0.3]'
p417
(dp418
g7
F0.9959061145782471
sg8
F0.0005860071629112915
ssS'eta:[0.2,0.3]'
p419
(dp420
g7
F0.9965437650680542
sg8
F0.0015139451469939392
ssS'eta:[0.9,1.2]'
p421
(dp422
g7
F0.9988836050033569
sg8
F0.0008307962119511137
ssS'eta:[-1.2,-0.9]'
p423
(dp424
g7
F0.9985487461090088
sg8
F0.0008423775221095803
ssS'eta:[2.1,2.4]'
p425
(dp426
g7
F0.9918552041053772
sg8
F0.0009949674176941794
ssS'eta:[-1.6,-1.2]'
p427
(dp428
g7
F0.9979197978973389
sg8
F0.0007042330902905295
ssS'eta:[1.2,1.6]'
p429
(dp430
g7
F0.9975846409797668
sg8
F0.0007075318895973831
ssS'eta:[-2.1,-1.6]'
p431
(dp432
g7
F0.996687650680542
sg8
F0.0006490517266760116
ssS'eta:[-0.3,-0.2]'
p433
(dp434
g7
F0.9955437779426575
sg8
F0.001527693825463745
ssS'eta:[1.6,2.1]'
p435
(dp436
g7
F0.9968969225883484
sg8
F0.0006461653954857848
ssssS'MC_NUM_LooseRelIso_DEN_TightID_PAR_pt_alleta_bin1'
p437
(dp438
S'pt_ratio'
p439
(dp440
S'pt:[25.0,30.0]'
p441
(dp442
g7
F0.9974955916404724
sg8
F0.0006499339413729753
ssS'pt:[30.0,40.0]'
p443
(dp444
g7
F0.9992598295211792
sg8
F0.00026917682690836897
ssS'pt:[80.0,120.0]'
p445
(dp446
g7
F0.9993377327919006
sg8
F0.0006362100876892986
ssS'pt:[120.0,200.0]'
p447
(dp448
g7
F0.9999791979789734
sg8
F0.00149584972488732
ssS'pt:[60.0,80.0]'
p449
(dp450
g7
F0.9993918538093567
sg8
F0.00032160917992041834
ssS'pt:[20.0,25.0]'
p451
(dp452
g7
F0.9943830966949463
sg8
F0.0010041206048699302
ssS'pt:[40.0,50.0]'
p453
(dp454
g7
F0.9990992546081543
sg8
F0.0001246396315366304
ssS'pt:[50.0,60.0]'
p455
(dp456
g7
F0.9996522665023804
sg8
F0.0002291117155331465
ssssS'MC_NUM_LooseRelIso_DEN_TightID_PAR_eta'
p457
(dp458
S'eta_ratio'
p459
(dp460
S'eta:[-0.2,0.2]'
p461
(dp462
g7
F0.999751627445221
sg8
F0.0003950109004163564
ssS'eta:[-2.4,-2.1]'
p463
(dp464
g7
F0.9987918734550476
sg8
F0.0005329843475390513
ssS'eta:[0.3,0.9]'
p465
(dp466
g7
F0.9999774694442749
sg8
F0.0003134004351144372
ssS'eta:[-0.9,-0.3]'
p467
(dp468
g7
F1.000008225440979
sg8
F0.0003206260253726883
ssS'eta:[0.2,0.3]'
p469
(dp470
g7
F0.9995457530021667
sg8
F0.0008274006367222993
ssS'eta:[0.9,1.2]'
p471
(dp472
g7
F0.9999873042106628
sg8
F0.00042916629614000323
ssS'eta:[-1.2,-0.9]'
p473
(dp474
g7
F0.9999009370803833
sg8
F0.0004538671270642644
ssS'eta:[2.1,2.4]'
p475
(dp476
g7
F0.9984064698219299
sg8
F0.0005301573539426333
ssS'eta:[-1.6,-1.2]'
p477
(dp478
g7
F0.9998429417610168
sg8
F0.0011010650986730951
ssS'eta:[1.2,1.6]'
p479
(dp480
g7
F1.0038541555404663
sg8
F0.0003797645158337797
ssS'eta:[-2.1,-1.6]'
p481
(dp482
g7
F0.9993004202842712
sg8
F0.00035074117690990844
ssS'eta:[-0.3,-0.2]'
p483
(dp484
g7
F0.9991593360900879
sg8
F0.000847054554004098
ssS'eta:[1.6,2.1]'
p485
(dp486
g7
F0.9995822310447693
sg8
F0.00036892048380155433
ssssS'MC_NUM_TightRelIso_DEN_TightID_PAR_phi'
p487
(dp488
S'phi_ratio'
p489
(dp490
S'phi:[-2.0944,-1.5708]'
p491
(dp492
g7
F0.9968921542167664
sg8
F0.0007420511411006263
ssS'phi:[1.0472,1.5708]'
p493
(dp494
g7
F0.9950338006019592
sg8
F0.0007500840924060541
ssS'phi:[1.5708,2.0944]'
p495
(dp496
g7
F0.9957852959632874
sg8
F0.0007491569209572813
ssS'phi:[-3.1416,-2.618]'
p497
(dp498
g7
F0.9971587657928467
sg8
F0.0007360946553804658
ssS'phi:[2.618,3.1416]'
p499
(dp500
g7
F0.9967017769813538
sg8
F0.0007308379814170665
ssS'phi:[-2.618,-2.0944]'
p501
(dp502
g7
F0.9980677366256714
sg8
F0.0007434509696169594
ssS'phi:[-1.0472,-0.5236]'
p503
(dp504
g7
F0.9972431063652039
sg8
F0.0007457179156921021
ssS'phi:[-0.5236,0.0]'
p505
(dp506
g7
F0.9958749413490295
sg8
F0.0007453932569061379
ssS'phi:[2.0944,2.618]'
p507
(dp508
g7
F0.9962956309318542
sg8
F0.000743544953472139
ssS'phi:[0.5236,1.0472]'
p509
(dp510
g7
F0.9959927797317505
sg8
F0.0007478888083696863
ssS'phi:[-1.5708,-1.0472]'
p511
(dp512
g7
F0.9969146251678467
sg8
F0.0007500193942499368
ssS'phi:[0.0,0.5236]'
p513
(dp514
g7
F0.9966713190078735
sg8
F0.0007401268138302431
ssssS'MC_NUM_tkRelIso4_DEN_TightID_PAR_pt_alleta_bin1'
p515
(dp516
S'pt_ratio'
p517
(dp518
S'pt:[25.0,30.0]'
p519
(dp520
g7
F1.0019242763519287
sg8
F0.0007173248610432261
ssS'pt:[30.0,40.0]'
p521
(dp522
g7
F1.0007209777832031
sg8
F0.0002739739997979241
ssS'pt:[80.0,120.0]'
p523
(dp524
g7
F0.999276340007782
sg8
F0.0006732822057931316
ssS'pt:[120.0,200.0]'
p525
(dp526
g7
F1.0000503063201904
sg8
F0.001561845992008757
ssS'pt:[60.0,80.0]'
p527
(dp528
g7
F0.9991916418075562
sg8
F0.00036610673629172707
ssS'pt:[20.0,25.0]'
p529
(dp530
g7
F0.9998411536216736
sg8
F0.0011104694932244745
ssS'pt:[40.0,50.0]'
p531
(dp532
g7
F0.9998264908790588
sg8
F0.0003156125506681271
ssS'pt:[50.0,60.0]'
p533
(dp534
g7
F0.9991540312767029
sg8
F0.0002588426595234348
ssssS'MC_NUM_TightRelIso_DEN_TightID_PAR_pt_spliteta_bin1'
p535
(dp536
S'pt_abseta_ratio'
p537
(dp538
S'pt:[25.0,30.0]'
p539
(dp540
S'abseta:[0.0,0.9]'
p541
(dp542
g7
F0.9936760067939758
sg8
F0.0018550449041465115
ssS'abseta:[1.2,2.1]'
p543
(dp544
g7
F0.995367169380188
sg8
F0.0016532591190388116
ssS'abseta:[2.1,2.4]'
p545
(dp546
g7
F0.9865698218345642
sg8
F0.0027669557630531196
ssS'abseta:[0.9,1.2]'
p547
(dp548
g7
F0.997467041015625
sg8
F0.0032955584175293996
sssS'pt:[30.0,40.0]'
p549
(dp550
S'abseta:[0.0,0.9]'
p551
(dp552
g7
F0.9945594072341919
sg8
F0.0006744581824270223
ssS'abseta:[1.2,2.1]'
p553
(dp554
g7
F0.9988604784011841
sg8
F0.0006911836747067821
ssS'abseta:[2.1,2.4]'
p555
(dp556
g7
F0.9954986572265625
sg8
F0.001226801079492166
ssS'abseta:[0.9,1.2]'
p557
(dp558
g7
F1.0008968114852905
sg8
F0.0012488897115599299
sssS'pt:[60.0,120.0]'
p559
(dp560
S'abseta:[0.0,0.9]'
p561
(dp562
g7
F0.9981516599655151
sg8
F0.0007591272111979684
ssS'abseta:[1.2,2.1]'
p563
(dp564
g7
F0.999313235282898
sg8
F0.0007386138066616589
ssS'abseta:[2.1,2.4]'
p565
(dp566
g7
F0.9998207092285156
sg8
F0.0017371945312523135
ssS'abseta:[0.9,1.2]'
p567
(dp568
g7
F0.9995093941688538
sg8
F0.0013053751378285195
sssS'pt:[20.0,25.0]'
p569
(dp570
S'abseta:[0.0,0.9]'
p571
(dp572
g7
F0.9909803867340088
sg8
F0.003257921977517447
ssS'abseta:[1.2,2.1]'
p573
(dp574
g7
F0.9906592965126038
sg8
F0.00247902884479693
ssS'abseta:[2.1,2.4]'
p575
(dp576
g7
F0.9818042516708374
sg8
F0.004245891330942165
ssS'abseta:[0.9,1.2]'
p577
(dp578
g7
F0.9880785346031189
sg8
F0.005039206162153525
sssS'pt:[40.0,50.0]'
p579
(dp580
S'abseta:[0.0,0.9]'
p581
(dp582
g7
F0.9959739446640015
sg8
F0.00025764061796930334
ssS'abseta:[1.2,2.1]'
p583
(dp584
g7
F0.9981842041015625
sg8
F0.0003673616108494893
ssS'abseta:[2.1,2.4]'
p585
(dp586
g7
F0.9965853095054626
sg8
F0.000743347113542411
ssS'abseta:[0.9,1.2]'
p587
(dp588
g7
F0.9983386993408203
sg8
F2.931560624438256e-05
sssS'pt:[50.0,60.0]'
p589
(dp590
S'abseta:[0.0,0.9]'
p591
(dp592
g7
F0.9966346621513367
sg8
F0.0006654096597989532
ssS'abseta:[1.2,2.1]'
p593
(dp594
g7
F0.9985334873199463
sg8
F0.0006206005531329335
ssS'abseta:[2.1,2.4]'
p595
(dp596
g7
F0.9956642389297485
sg8
F0.0013326358148158597
ssS'abseta:[0.9,1.2]'
p597
(dp598
g7
F0.998671293258667
sg8
F0.0011005188181177326
ssssS'abseta_pt_ratio'
p599
(dp600
S'abseta:[0.0,0.9]'
p601
(dp602
S'pt:[25.0,30.0]'
p603
(dp604
g7
F0.9936760067939758
sg8
F0.0018550449041465115
ssS'pt:[30.0,40.0]'
p605
(dp606
g7
F0.9945594072341919
sg8
F0.0006744581824270223
ssS'pt:[60.0,120.0]'
p607
(dp608
g7
F0.9981516599655151
sg8
F0.0007591272111979684
ssS'pt:[20.0,25.0]'
p609
(dp610
g7
F0.9909803867340088
sg8
F0.003257921977517447
ssS'pt:[40.0,50.0]'
p611
(dp612
g7
F0.9959739446640015
sg8
F0.00025764061796930334
ssS'pt:[50.0,60.0]'
p613
(dp614
g7
F0.9966346621513367
sg8
F0.0006654096597989532
sssS'abseta:[1.2,2.1]'
p615
(dp616
S'pt:[25.0,30.0]'
p617
(dp618
g7
F0.995367169380188
sg8
F0.0016532591190388116
ssS'pt:[30.0,40.0]'
p619
(dp620
g7
F0.9988604784011841
sg8
F0.0006911836747067821
ssS'pt:[60.0,120.0]'
p621
(dp622
g7
F0.999313235282898
sg8
F0.0007386138066616589
ssS'pt:[20.0,25.0]'
p623
(dp624
g7
F0.9906592965126038
sg8
F0.00247902884479693
ssS'pt:[40.0,50.0]'
p625
(dp626
g7
F0.9981842041015625
sg8
F0.0003673616108494893
ssS'pt:[50.0,60.0]'
p627
(dp628
g7
F0.9985334873199463
sg8
F0.0006206005531329335
sssS'abseta:[2.1,2.4]'
p629
(dp630
S'pt:[25.0,30.0]'
p631
(dp632
g7
F0.9865698218345642
sg8
F0.0027669557630531196
ssS'pt:[30.0,40.0]'
p633
(dp634
g7
F0.9954986572265625
sg8
F0.001226801079492166
ssS'pt:[60.0,120.0]'
p635
(dp636
g7
F0.9998207092285156
sg8
F0.0017371945312523135
ssS'pt:[20.0,25.0]'
p637
(dp638
g7
F0.9818042516708374
sg8
F0.004245891330942165
ssS'pt:[40.0,50.0]'
p639
(dp640
g7
F0.9965853095054626
sg8
F0.000743347113542411
ssS'pt:[50.0,60.0]'
p641
(dp642
g7
F0.9956642389297485
sg8
F0.0013326358148158597
sssS'abseta:[0.9,1.2]'
p643
(dp644
S'pt:[25.0,30.0]'
p645
(dp646
g7
F0.997467041015625
sg8
F0.0032955584175293996
ssS'pt:[30.0,40.0]'
p647
(dp648
g7
F1.0008968114852905
sg8
F0.0012488897115599299
ssS'pt:[60.0,120.0]'
p649
(dp650
g7
F0.9995093941688538
sg8
F0.0013053751378285195
ssS'pt:[20.0,25.0]'
p651
(dp652
g7
F0.9880785346031189
sg8
F0.005039206162153525
ssS'pt:[40.0,50.0]'
p653
(dp654
g7
F0.9983386993408203
sg8
F2.931560624438256e-05
ssS'pt:[50.0,60.0]'
p655
(dp656
g7
F0.998671293258667
sg8
F0.0011005188181177326
sssssS'MC_NUM_TightRelIso_DEN_TightID_PAR_pt_alleta_bin1'
p657
(dp658
S'pt_ratio'
p659
(dp660
S'pt:[25.0,30.0]'
p661
(dp662
g7
F0.9944642782211304
sg8
F0.0010877175805189098
ssS'pt:[30.0,40.0]'
p663
(dp664
g7
F0.9967135787010193
sg8
F0.0004308368889669689
ssS'pt:[80.0,120.0]'
p665
(dp666
g7
F0.9998717904090881
sg8
F0.0009490250405384725
ssS'pt:[120.0,200.0]'
p667
(dp668
g7
F1.001554012298584
sg8
F0.0022813776856540767
ssS'pt:[60.0,80.0]'
p669
(dp670
g7
F0.9983980655670166
sg8
F0.0005549487453775681
ssS'pt:[20.0,25.0]'
p671
(dp672
g7
F0.9902703762054443
sg8
F0.0017151030880378753
ssS'pt:[40.0,50.0]'
p673
(dp674
g7
F0.9968225359916687
sg8
F0.00017953084075556606
ssS'pt:[50.0,60.0]'
p675
(dp676
g7
F0.9973234534263611
sg8
F0.00040950384618831817
ssssS'MC_NUM_tkRelIso4_DEN_TightID_PAR_phi'
p677
(dp678
S'phi_ratio'
p679
(dp680
S'phi:[-2.0944,-1.5708]'
p681
(dp682
g7
F0.9998621940612793
sg8
F0.0004636307213182764
ssS'phi:[1.0472,1.5708]'
p683
(dp684
g7
F1.0002803802490234
sg8
F0.00046667706674415944
ssS'phi:[1.5708,2.0944]'
p685
(dp686
g7
F0.9999316334724426
sg8
F0.00046632112718658706
ssS'phi:[-3.1416,-2.618]'
p687
(dp688
g7
F0.9997603297233582
sg8
F0.0004647017346541276
ssS'phi:[2.618,3.1416]'
p689
(dp690
g7
F1.001023292541504
sg8
F0.00045817925470191084
ssS'phi:[-2.618,-2.0944]'
p691
(dp692
g7
F1.0014768838882446
sg8
F0.00046218397931607617
ssS'phi:[-1.0472,-0.5236]'
p693
(dp694
g7
F1.0005569458007812
sg8
F0.00046676951103124647
ssS'phi:[-0.5236,0.0]'
p695
(dp696
g7
F1.0002682209014893
sg8
F0.000466341425213749
ssS'phi:[2.0944,2.618]'
p697
(dp698
g7
F1.000292181968689
sg8
F0.0004576285248936464
ssS'phi:[0.5236,1.0472]'
p699
(dp700
g7
F1.0000702142715454
sg8
F0.00047065265166985735
ssS'phi:[-1.5708,-1.0472]'
p701
(dp702
g7
F1.0002796649932861
sg8
F0.0004701457747110112
ssS'phi:[0.0,0.5236]'
p703
(dp704
g7
F1.0003447532653809
sg8
F0.0004678064022036327
ssss.